; ModuleID = 'bench/abseil-cpp/original/randen_detect.ll'
source_filename = "bench/abseil-cpp/original/randen_detect.ll"
target datalayout = "e-m:e-p270:32:32-p271:32:32-p272:64:64-i64:64-i128:128-f80:128-n8:16:32:64-S128"
target triple = "x86_64-pc-linux-gnu"

; Function Attrs: mustprogress uwtable
define dso_local noundef zeroext i1 @_ZN4absl15random_internal22CPUSupportsRandenHwAesEv() local_unnamed_addr #0 {
  %1 = tail call { i32, i32, i32, i32 } asm sideeffect "cpuid \0A\09", "={ax},={bx},={cx},={dx},{ax},{cx},~{dirflag},~{fpsr},~{flags}"(i32 1, i32 0) #1, !srcloc !4
  %2 = extractvalue { i32, i32, i32, i32 } %1, 2
  %3 = and i32 %2, 33554432
  %4 = icmp ne i32 %3, 0
  ret i1 %4
}


!llvm.module.flags = !{!0, !1, !2, !3}

!0 = !{i32 1, !"wchar_size", i32 4}
!1 = !{i32 8, !"PIC Level", i32 2}
!2 = !{i32 7, !"PIE Level", i32 2}
!3 = !{i32 7, !"uwtable", i32 2}
!4 = !{i64 2299, i64 2308}
